target datalayout = "e-m:e-p270:32:32-p271:32:32-p272:64:64-i64:64-i128:128-f80:128-n8:16:32:64-S128"
target triple = "x86_64-pc-linux-gnu"

%struct.gss_channel_bindings_struct = type { i32, %struct.gss_buffer_desc_struct, i32, %struct.gss_buffer_desc_struct, %struct.gss_buffer_desc_struct }
%struct.gss_buffer_desc_struct = type { i64, ptr }

; Function Attrs: nounwind uwtable
define hidden void @deleteGSSCB(ptr noundef %0) #0 {
  %2 = alloca ptr, align 8
  store ptr %0, ptr %2, align 8
  %3 = load ptr, ptr %2, align 8
  %4 = icmp eq ptr %3, null
  br i1 %4, label %5, label %6

5:                                                ; preds = %1
  br label %43

6:                                                ; preds = %1
  %7 = load ptr, ptr %2, align 8
  %8 = getelementptr inbounds %struct.gss_channel_bindings_struct, ptr %7, i32 0, i32 0
  %9 = load i32, ptr %8, align 8
  %10 = icmp ne i32 %9, 255
  br i1 %10, label %11, label %19

11:                                               ; preds = %6
  %12 = load ptr, ptr %2, align 8
  %13 = getelementptr inbounds %struct.gss_channel_bindings_struct, ptr %12, i32 0, i32 0
  %14 = load i32, ptr %13, align 8
  %15 = icmp ne i32 %14, 0
  br i1 %15, label %16, label %19

16:                                               ; preds = %11
  %17 = load ptr, ptr %2, align 8
  %18 = getelementptr inbounds %struct.gss_channel_bindings_struct, ptr %17, i32 0, i32 1
  call void @resetGSSBuffer(ptr noundef %18)
  br label %19

19:                                               ; preds = %16, %11, %6
  %20 = load ptr, ptr %2, align 8
  %21 = getelementptr inbounds %struct.gss_channel_bindings_struct, ptr %20, i32 0, i32 2
  %22 = load i32, ptr %21, align 8
  %23 = icmp ne i32 %22, 255
  br i1 %23, label %24, label %32

24:                                               ; preds = %19
  %25 = load ptr, ptr %2, align 8
  %26 = getelementptr inbounds %struct.gss_channel_bindings_struct, ptr %25, i32 0, i32 2
  %27 = load i32, ptr %26, align 8
  %28 = icmp ne i32 %27, 0
  br i1 %28, label %29, label %32

29:                                               ; preds = %24
  %30 = load ptr, ptr %2, align 8
  %31 = getelementptr inbounds %struct.gss_channel_bindings_struct, ptr %30, i32 0, i32 3
  call void @resetGSSBuffer(ptr noundef %31)
  br label %32

32:                                               ; preds = %29, %24, %19
  %33 = load ptr, ptr %2, align 8
  %34 = getelementptr inbounds %struct.gss_channel_bindings_struct, ptr %33, i32 0, i32 4
  %35 = getelementptr inbounds %struct.gss_buffer_desc_struct, ptr %34, i32 0, i32 0
  %36 = load i64, ptr %35, align 8
  %37 = icmp ne i64 %36, 0
  br i1 %37, label %38, label %41

38:                                               ; preds = %32
  %39 = load ptr, ptr %2, align 8
  %40 = getelementptr inbounds %struct.gss_channel_bindings_struct, ptr %39, i32 0, i32 4
  call void @resetGSSBuffer(ptr noundef %40)
  br label %41

41:                                               ; preds = %38, %32
  %42 = load ptr, ptr %2, align 8
  call void @free(ptr noundef %42) #5
  br label %43

43:                                               ; preds = %41, %5
  ret void
}