; Function Attrs: nounwind uwtable
define hidden void @deleteGSSCB(ptr noundef %0) local_unnamed_addr #0 {
  %2 = icmp eq ptr %0, null
  br i1 %2, label %17, label %3

3:                                                ; preds = %1
  %4 = load i32, ptr %0, align 8
  switch i32 %4, label %5 [
    i32 255, label %7
    i32 0, label %7
  ]

5:                                                ; preds = %3
  %6 = getelementptr inbounds i8, ptr %0, i64 8
  tail call void @resetGSSBuffer(ptr noundef nonnull %6) #9
  br label %7

7:                                                ; preds = %3, %3, %5
  %8 = getelementptr inbounds i8, ptr %0, i64 24
  %9 = load i32, ptr %8, align 8
  switch i32 %9, label %10 [
    i32 255, label %12
    i32 0, label %12
  ]

10:                                               ; preds = %7
  %11 = getelementptr inbounds i8, ptr %0, i64 32
  tail call void @resetGSSBuffer(ptr noundef nonnull %11) #9
  br label %12

12:                                               ; preds = %7, %7, %10
  %13 = getelementptr inbounds i8, ptr %0, i64 48
  %14 = load i64, ptr %13, align 8
  %.not15 = icmp eq i64 %14, 0
  br i1 %.not15, label %16, label %15

15:                                               ; preds = %12
  tail call void @resetGSSBuffer(ptr noundef nonnull %13) #9
  br label %16

16:                                               ; preds = %15, %12
  tail call void @free(ptr noundef nonnull %0) #9
  br label %17

17:                                               ; preds = %1, %16
  ret void
}